target datalayout = "e-m:e-p270:32:32-p271:32:32-p272:64:64-i64:64-i128:128-f80:128-n8:16:32:64-S128"
target triple = "x86_64-pc-linux-gnu"

%struct.CXzStream = type { i16, i64, i64, ptr, i64 }
%struct.CXzBlockSizes = type { i64, i64 }
%struct.ISzAlloc = type { ptr, ptr }

; Function Attrs: nounwind uwtable
define internal i32 @Xz_ReadIndex2(ptr noundef %0, ptr noundef %1, i64 noundef %2, ptr noundef %3) #0 {
  %5 = alloca i32, align 4
  %6 = alloca ptr, align 8
  %7 = alloca ptr, align 8
  %8 = alloca i64, align 8
  %9 = alloca ptr, align 8
  %10 = alloca i64, align 8
  %11 = alloca i64, align 8
  %12 = alloca i64, align 8
  %13 = alloca i64, align 8
  %14 = alloca i32, align 4
  %15 = alloca i64, align 8
  %16 = alloca i32, align 4
  %17 = alloca ptr, align 8
  %18 = alloca i32, align 4
  %19 = alloca i32, align 4
  store ptr %0, ptr %6, align 8
  store ptr %1, ptr %7, align 8
  store i64 %2, ptr %8, align 8
  store ptr %3, ptr %9, align 8
  store i64 1, ptr %13, align 8
  %20 = load i64, ptr %8, align 8
  %21 = icmp ult i64 %20, 5
  br i1 %21, label %28, label %22

22:                                               ; preds = %4
  %23 = load ptr, ptr %7, align 8
  %24 = getelementptr inbounds i8, ptr %23, i64 0
  %25 = load i8, ptr %24, align 1
  %26 = zext i8 %25 to i32
  %27 = icmp ne i32 %26, 0
  br i1 %27, label %28, label %29

28:                                               ; preds = %22, %4
  store i32 16, ptr %5, align 4
  br label %170

29:                                               ; preds = %22
  %30 = load i64, ptr %8, align 8
  %31 = sub i64 %30, 4
  store i64 %31, ptr %8, align 8
  %32 = load ptr, ptr %7, align 8
  %33 = load i64, ptr %8, align 8
  %34 = call i32 @CrcCalc(ptr noundef %32, i64 noundef %33)
  store i32 %34, ptr %14, align 4
  %35 = load i32, ptr %14, align 4
  %36 = load ptr, ptr %7, align 8
  %37 = load i64, ptr %8, align 8
  %38 = getelementptr inbounds i8, ptr %36, i64 %37
  %39 = load i32, ptr %38, align 1
  %40 = icmp ne i32 %35, %39
  br i1 %40, label %41, label %42

41:                                               ; preds = %29
  store i32 16, ptr %5, align 4
  br label %170

42:                                               ; preds = %29
  %43 = load ptr, ptr %7, align 8
  %44 = load i64, ptr %13, align 8
  %45 = getelementptr inbounds i8, ptr %43, i64 %44
  %46 = load i64, ptr %8, align 8
  %47 = load i64, ptr %13, align 8
  %48 = sub i64 %46, %47
  %49 = call i32 @Xz_ReadVarInt(ptr noundef %45, i64 noundef %48, ptr noundef %15)
  store i32 %49, ptr %16, align 4
  %50 = load i32, ptr %16, align 4
  %51 = icmp eq i32 %50, 0
  br i1 %51, label %52, label %53

52:                                               ; preds = %42
  store i32 16, ptr %5, align 4
  br label %170

53:                                               ; preds = %42
  %54 = load i32, ptr %16, align 4
  %55 = zext i32 %54 to i64
  %56 = load i64, ptr %13, align 8
  %57 = add i64 %56, %55
  store i64 %57, ptr %13, align 8
  %58 = load i64, ptr %15, align 8
  store i64 %58, ptr %11, align 8
  %59 = load i64, ptr %11, align 8
  %60 = load i64, ptr %15, align 8
  %61 = icmp ne i64 %59, %60
  br i1 %61, label %67, label %62

62:                                               ; preds = %53
  %63 = load i64, ptr %11, align 8
  %64 = mul i64 %63, 2
  %65 = load i64, ptr %8, align 8
  %66 = icmp ugt i64 %64, %65
  br i1 %66, label %67, label %68

67:                                               ; preds = %62, %53
  store i32 16, ptr %5, align 4
  br label %170

68:                                               ; preds = %62
  %69 = load i64, ptr %13, align 8
  store i64 %69, ptr %12, align 8
  %70 = load ptr, ptr %6, align 8
  %71 = load ptr, ptr %9, align 8
  call void @Xz_Free(ptr noundef %70, ptr noundef %71)
  %72 = load i64, ptr %11, align 8
  %73 = icmp ne i64 %72, 0
  br i1 %73, label %74, label %150

74:                                               ; preds = %68
  %75 = load i64, ptr %11, align 8
  %76 = load ptr, ptr %6, align 8
  %77 = getelementptr inbounds %struct.CXzStream, ptr %76, i32 0, i32 1
  store i64 %75, ptr %77, align 8
  %78 = load i64, ptr %11, align 8
  %79 = load ptr, ptr %6, align 8
  %80 = getelementptr inbounds %struct.CXzStream, ptr %79, i32 0, i32 2
  store i64 %78, ptr %80, align 8
  %81 = load ptr, ptr %9, align 8
  %82 = getelementptr inbounds %struct.ISzAlloc, ptr %81, i32 0, i32 0
  %83 = load ptr, ptr %82, align 8
  %84 = load ptr, ptr %9, align 8
  %85 = load i64, ptr %11, align 8
  %86 = mul i64 16, %85
  %87 = call ptr %83(ptr noundef %84, i64 noundef %86)
  %88 = load ptr, ptr %6, align 8
  %89 = getelementptr inbounds %struct.CXzStream, ptr %88, i32 0, i32 3
  store ptr %87, ptr %89, align 8
  %90 = load ptr, ptr %6, align 8
  %91 = getelementptr inbounds %struct.CXzStream, ptr %90, i32 0, i32 3
  %92 = load ptr, ptr %91, align 8
  %93 = icmp eq ptr %92, null
  br i1 %93, label %94, label %95

94:                                               ; preds = %74
  store i32 2, ptr %5, align 4
  br label %170

95:                                               ; preds = %74
  store i64 0, ptr %10, align 8
  br label %96

96:                                               ; preds = %146, %95
  %97 = load i64, ptr %10, align 8
  %98 = load i64, ptr %11, align 8
  %99 = icmp ult i64 %97, %98
  br i1 %99, label %100, label %149

100:                                              ; preds = %96
  %101 = load ptr, ptr %6, align 8
  %102 = getelementptr inbounds %struct.CXzStream, ptr %101, i32 0, i32 3
  %103 = load ptr, ptr %102, align 8
  %104 = load i64, ptr %10, align 8
  %105 = getelementptr inbounds %struct.CXzBlockSizes, ptr %103, i64 %104
  store ptr %105, ptr %17, align 8
  %106 = load ptr, ptr %7, align 8
  %107 = load i64, ptr %13, align 8
  %108 = getelementptr inbounds i8, ptr %106, i64 %107
  %109 = load i64, ptr %8, align 8
  %110 = load i64, ptr %13, align 8
  %111 = sub i64 %109, %110
  %112 = load ptr, ptr %17, align 8
  %113 = getelementptr inbounds %struct.CXzBlockSizes, ptr %112, i32 0, i32 1
  %114 = call i32 @Xz_ReadVarInt(ptr noundef %108, i64 noundef %111, ptr noundef %113)
  store i32 %114, ptr %18, align 4
  %115 = load i32, ptr %18, align 4
  %116 = icmp eq i32 %115, 0
  br i1 %116, label %117, label %118

117:                                              ; preds = %100
  store i32 16, ptr %5, align 4
  br label %170

118:                                              ; preds = %100
  %119 = load i32, ptr %18, align 4
  %120 = zext i32 %119 to i64
  %121 = load i64, ptr %13, align 8
  %122 = add i64 %121, %120
  store i64 %122, ptr %13, align 8
  %123 = load ptr, ptr %7, align 8
  %124 = load i64, ptr %13, align 8
  %125 = getelementptr inbounds i8, ptr %123, i64 %124
  %126 = load i64, ptr %8, align 8
  %127 = load i64, ptr %13, align 8
  %128 = sub i64 %126, %127
  %129 = load ptr, ptr %17, align 8
  %130 = getelementptr inbounds %struct.CXzBlockSizes, ptr %129, i32 0, i32 0
  %131 = call i32 @Xz_ReadVarInt(ptr noundef %125, i64 noundef %128, ptr noundef %130)
  store i32 %131, ptr %19, align 4
  %132 = load i32, ptr %19, align 4
  %133 = icmp eq i32 %132, 0
  br i1 %133, label %134, label %135

134:                                              ; preds = %118
  store i32 16, ptr %5, align 4
  br label %170

135:                                              ; preds = %118
  %136 = load i32, ptr %19, align 4
  %137 = zext i32 %136 to i64
  %138 = load i64, ptr %13, align 8
  %139 = add i64 %138, %137
  store i64 %139, ptr %13, align 8
  %140 = load ptr, ptr %17, align 8
  %141 = getelementptr inbounds %struct.CXzBlockSizes, ptr %140, i32 0, i32 1
  %142 = load i64, ptr %141, align 8
  %143 = icmp eq i64 %142, 0
  br i1 %143, label %144, label %145

144:                                              ; preds = %135
  store i32 16, ptr %5, align 4
  br label %170

145:                                              ; preds = %135
  br label %146

146:                                              ; preds = %145
  %147 = load i64, ptr %10, align 8
  %148 = add i64 %147, 1
  store i64 %148, ptr %10, align 8
  br label %96

149:                                              ; preds = %96
  br label %150

150:                                              ; preds = %149, %68
  br label %151

151:                                              ; preds = %164, %150
  %152 = load i64, ptr %13, align 8
  %153 = and i64 %152, 3
  %154 = icmp ne i64 %153, 0
  br i1 %154, label %155, label %165

155:                                              ; preds = %151
  %156 = load ptr, ptr %7, align 8
  %157 = load i64, ptr %13, align 8
  %158 = add i64 %157, 1
  store i64 %158, ptr %13, align 8
  %159 = getelementptr inbounds i8, ptr %156, i64 %157
  %160 = load i8, ptr %159, align 1
  %161 = zext i8 %160 to i32
  %162 = icmp ne i32 %161, 0
  br i1 %162, label %163, label %164

163:                                              ; preds = %155
  store i32 16, ptr %5, align 4
  br label %170

164:                                              ; preds = %155
  br label %151

165:                                              ; preds = %151
  %166 = load i64, ptr %13, align 8
  %167 = load i64, ptr %8, align 8
  %168 = icmp eq i64 %166, %167
  %169 = select i1 %168, i32 0, i32 16
  store i32 %169, ptr %5, align 4
  br label %170

170:                                              ; preds = %165, %163, %144, %134, %117, %94, %67, %52, %41, %28
  %171 = load i32, ptr %5, align 4
  ret i32 %171
}

; Function Attrs: nounwind uwtable
define internal i32 @Xz_ReadIndex(ptr noundef %0, ptr noundef %1, i64 noundef %2, ptr noundef %3) #0 {
  %5 = alloca i32, align 4
  %6 = alloca ptr, align 8
  %7 = alloca ptr, align 8
  %8 = alloca i64, align 8
  %9 = alloca ptr, align 8
  %10 = alloca i32, align 4
  %11 = alloca i64, align 8
  %12 = alloca ptr, align 8
  store ptr %0, ptr %6, align 8
  store ptr %1, ptr %7, align 8
  store i64 %2, ptr %8, align 8
  store ptr %3, ptr %9, align 8
  %13 = load i64, ptr %8, align 8
  %14 = icmp ugt i64 %13, 2147483648
  br i1 %14, label %15, label %16

15:                                               ; preds = %4
  store i32 4, ptr %5, align 4
  br label %52

16:                                               ; preds = %4
  %17 = load i64, ptr %8, align 8
  store i64 %17, ptr %11, align 8
  %18 = load i64, ptr %11, align 8
  %19 = load i64, ptr %8, align 8
  %20 = icmp ne i64 %18, %19
  br i1 %20, label %21, label %22

21:                                               ; preds = %16
  store i32 4, ptr %5, align 4
  br label %52

22:                                               ; preds = %16
  %23 = load ptr, ptr %9, align 8
  %24 = getelementptr inbounds %struct.ISzAlloc, ptr %23, i32 0, i32 0
  %25 = load ptr, ptr %24, align 8
  %26 = load ptr, ptr %9, align 8
  %27 = load i64, ptr %11, align 8
  %28 = call ptr %25(ptr noundef %26, i64 noundef %27)
  store ptr %28, ptr %12, align 8
  %29 = load ptr, ptr %12, align 8
  %30 = icmp eq ptr %29, null
  br i1 %30, label %31, label %32

31:                                               ; preds = %22
  store i32 2, ptr %5, align 4
  br label %52

32:                                               ; preds = %22
  %33 = load ptr, ptr %7, align 8
  %34 = load ptr, ptr %12, align 8
  %35 = load i64, ptr %11, align 8
  %36 = call i32 @LookInStream_Read2(ptr noundef %33, ptr noundef %34, i64 noundef %35, i32 noundef 4)
  store i32 %36, ptr %10, align 4
  %37 = load i32, ptr %10, align 4
  %38 = icmp eq i32 %37, 0
  br i1 %38, label %39, label %45

39:                                               ; preds = %32
  %40 = load ptr, ptr %6, align 8
  %41 = load ptr, ptr %12, align 8
  %42 = load i64, ptr %11, align 8
  %43 = load ptr, ptr %9, align 8
  %44 = call i32 @Xz_ReadIndex2(ptr noundef %40, ptr noundef %41, i64 noundef %42, ptr noundef %43)
  store i32 %44, ptr %10, align 4
  br label %45

45:                                               ; preds = %39, %32
  %46 = load ptr, ptr %9, align 8
  %47 = getelementptr inbounds %struct.ISzAlloc, ptr %46, i32 0, i32 1
  %48 = load ptr, ptr %47, align 8
  %49 = load ptr, ptr %9, align 8
  %50 = load ptr, ptr %12, align 8
  call void %48(ptr noundef %49, ptr noundef %50)
  %51 = load i32, ptr %10, align 4
  store i32 %51, ptr %5, align 4
  br label %52

52:                                               ; preds = %45, %31, %21, %15
  %53 = load i32, ptr %5, align 4
  ret i32 %53
}