; Function Attrs: nounwind uwtable
define internal fastcc i32 @Xz_ReadIndex(ptr noundef nonnull %0, ptr noundef %1, i64 noundef range(i64 0, -3) %2, ptr noundef %3) unnamed_addr #0 {
  %5 = alloca i64, align 8
  %6 = icmp ugt i64 %2, 2147483648
  br i1 %6, label %75, label %7

7:                                                ; preds = %4
  %8 = load ptr, ptr %3, align 8
  %9 = tail call ptr %8(ptr noundef nonnull %3, i64 noundef %2) #9
  %10 = icmp eq ptr %9, null
  br i1 %10, label %75, label %11

11:                                               ; preds = %7
  %12 = tail call i32 @LookInStream_Read2(ptr noundef %1, ptr noundef nonnull %9, i64 noundef %2, i32 noundef 4) #9
  %13 = icmp eq i32 %12, 0
  br i1 %13, label %14, label %72

14:                                               ; preds = %11
  call void @llvm.lifetime.start.p0(i64 8, ptr nonnull %5)
  %15 = icmp samesign ult i64 %2, 5
  br i1 %15, label %Xz_ReadIndex2.exit, label %16

16:                                               ; preds = %14
  %17 = load i8, ptr %9, align 1
  %.not.i = icmp eq i8 %17, 0
  br i1 %.not.i, label %18, label %Xz_ReadIndex2.exit

18:                                               ; preds = %16
  %19 = add nsw i64 %2, -4
  %20 = tail call i32 @CrcCalc(ptr noundef nonnull %9, i64 noundef %19) #9
  %21 = getelementptr inbounds nuw i8, ptr %9, i64 %19
  %22 = load i32, ptr %21, align 1
  %.not66.i = icmp eq i32 %20, %22
  br i1 %.not66.i, label %23, label %Xz_ReadIndex2.exit

23:                                               ; preds = %18
  %24 = getelementptr inbounds nuw i8, ptr %9, i64 1
  %25 = add nsw i64 %2, -5
  %26 = call i32 @Xz_ReadVarInt(ptr noundef nonnull %24, i64 noundef %25, ptr noundef nonnull %5) #9
  %27 = icmp eq i32 %26, 0
  br i1 %27, label %Xz_ReadIndex2.exit, label %28

28:                                               ; preds = %23
  %29 = zext i32 %26 to i64
  %30 = add nuw nsw i64 %29, 1
  %31 = load i64, ptr %5, align 8
  %32 = shl i64 %31, 1
  %33 = icmp ugt i64 %32, %19
  br i1 %33, label %Xz_ReadIndex2.exit, label %34

34:                                               ; preds = %28
  call void @Xz_Free(ptr noundef nonnull %0, ptr noundef nonnull %3) #9
  %.not67.i = icmp eq i64 %31, 0
  br i1 %.not67.i, label %.loopexit70.i.preheader, label %35

35:                                               ; preds = %34
  %36 = getelementptr inbounds nuw i8, ptr %0, i64 8
  store i64 %31, ptr %36, align 8
  %37 = getelementptr inbounds nuw i8, ptr %0, i64 16
  store i64 %31, ptr %37, align 8
  %38 = load ptr, ptr %3, align 8
  %39 = shl i64 %31, 4
  %40 = call ptr %38(ptr noundef nonnull %3, i64 noundef %39) #9
  %41 = getelementptr inbounds nuw i8, ptr %0, i64 24
  store ptr %40, ptr %41, align 8
  %42 = icmp eq ptr %40, null
  br i1 %42, label %Xz_ReadIndex2.exit, label %.preheader.i

.preheader.i:                                     ; preds = %35, %60
  %.05875.i = phi i64 [ %63, %60 ], [ 0, %35 ]
  %.174.i = phi i64 [ %62, %60 ], [ %30, %35 ]
  %43 = load ptr, ptr %41, align 8
  %44 = getelementptr inbounds %struct.CXzBlockSizes, ptr %43, i64 %.05875.i
  %45 = getelementptr inbounds i8, ptr %9, i64 %.174.i
  %46 = sub i64 %19, %.174.i
  %47 = getelementptr inbounds nuw i8, ptr %44, i64 8
  %48 = call i32 @Xz_ReadVarInt(ptr noundef nonnull %45, i64 noundef %46, ptr noundef nonnull %47) #9
  %49 = icmp eq i32 %48, 0
  br i1 %49, label %Xz_ReadIndex2.exit, label %50

50:                                               ; preds = %.preheader.i
  %51 = zext i32 %48 to i64
  %52 = add i64 %.174.i, %51
  %53 = getelementptr inbounds i8, ptr %9, i64 %52
  %54 = sub i64 %19, %52
  %55 = call i32 @Xz_ReadVarInt(ptr noundef nonnull %53, i64 noundef %54, ptr noundef nonnull %44) #9
  %56 = icmp eq i32 %55, 0
  br i1 %56, label %Xz_ReadIndex2.exit, label %57

57:                                               ; preds = %50
  %58 = load i64, ptr %47, align 8
  %59 = icmp eq i64 %58, 0
  br i1 %59, label %Xz_ReadIndex2.exit, label %60

60:                                               ; preds = %57
  %61 = zext i32 %55 to i64
  %62 = add i64 %52, %61
  %63 = add nuw i64 %.05875.i, 1
  %exitcond.not.i = icmp eq i64 %63, %31
  br i1 %exitcond.not.i, label %.loopexit70.i.preheader, label %.preheader.i

.loopexit70.i.preheader:                          ; preds = %60, %34
  %.2.i.ph = phi i64 [ %30, %34 ], [ %62, %60 ]
  br label %.loopexit70.i

.loopexit70.i:                                    ; preds = %.loopexit70.i.preheader, %65
  %.2.i = phi i64 [ %66, %65 ], [ %.2.i.ph, %.loopexit70.i.preheader ]
  %64 = and i64 %.2.i, 3
  %.not68.i = icmp eq i64 %64, 0
  br i1 %.not68.i, label %69, label %65

65:                                               ; preds = %.loopexit70.i
  %66 = add i64 %.2.i, 1
  %67 = getelementptr inbounds i8, ptr %9, i64 %.2.i
  %68 = load i8, ptr %67, align 1
  %.not69.i = icmp eq i8 %68, 0
  br i1 %.not69.i, label %.loopexit70.i, label %Xz_ReadIndex2.exit

69:                                               ; preds = %.loopexit70.i
  %70 = icmp eq i64 %.2.i, %19
  %71 = select i1 %70, i32 0, i32 16
  br label %Xz_ReadIndex2.exit

Xz_ReadIndex2.exit:                               ; preds = %.preheader.i, %50, %57, %65, %14, %16, %18, %23, %28, %35, %69
  %.0.i = phi i32 [ %71, %69 ], [ 16, %16 ], [ 16, %14 ], [ 16, %18 ], [ 16, %23 ], [ 16, %28 ], [ 2, %35 ], [ 16, %65 ], [ 16, %57 ], [ 16, %50 ], [ 16, %.preheader.i ]
  call void @llvm.lifetime.end.p0(i64 8, ptr nonnull %5)
  br label %72

72:                                               ; preds = %Xz_ReadIndex2.exit, %11
  %.020 = phi i32 [ %.0.i, %Xz_ReadIndex2.exit ], [ %12, %11 ]
  %73 = getelementptr inbounds nuw i8, ptr %3, i64 8
  %74 = load ptr, ptr %73, align 8
  call void %74(ptr noundef nonnull %3, ptr noundef nonnull %9) #9
  br label %75

75:                                               ; preds = %7, %4, %72
  %.0 = phi i32 [ %.020, %72 ], [ 4, %4 ], [ 2, %7 ]
  ret i32 %.0
}